target datalayout = "e-m:e-p270:32:32-p271:32:32-p272:64:64-i64:64-i128:128-f80:128-n8:16:32:64-S128"
target triple = "x86_64-pc-linux-gnu"

%"class.VrmlTranslator::Errors" = type { i32, ptr }

@.str.301 = private unnamed_addr constant [24 x i32] [i32 45, i32 45, i32 32, i32 108, i32 105, i32 110, i32 101, i32 32, i32 37, i32 100, i32 32, i32 99, i32 111, i32 108, i32 32, i32 37, i32 100, i32 58, i32 32, i32 37, i32 108, i32 115, i32 10, i32 0], align 4

; Function Attrs: mustprogress uwtable
define void @_ZN14VrmlTranslator6Errors5ErrorEiiPKw(ptr noundef nonnull align 8 dereferenceable(16) %0, i32 noundef %1, i32 noundef %2, ptr noundef %3) #0 align 2 {
  %5 = alloca ptr, align 8
  %6 = alloca i32, align 4
  %7 = alloca i32, align 4
  %8 = alloca ptr, align 8
  %9 = alloca [100 x i32], align 16
  store ptr %0, ptr %5, align 8
  store i32 %1, ptr %6, align 4
  store i32 %2, ptr %7, align 4
  store ptr %3, ptr %8, align 8
  %10 = load ptr, ptr %5, align 8
  %11 = getelementptr inbounds [100 x i32], ptr %9, i64 0, i64 0
  %12 = load i32, ptr %6, align 4
  %13 = load i32, ptr %7, align 4
  %14 = load ptr, ptr %8, align 8
  %15 = call i32 (ptr, i64, ptr, ...) @swprintf(ptr noundef %11, i64 noundef 100, ptr noundef @.str.301, i32 noundef %12, i32 noundef %13, ptr noundef %14) #10
  %16 = getelementptr inbounds %"class.VrmlTranslator::Errors", ptr %10, i32 0, i32 1
  %17 = load ptr, ptr %16, align 8
  %18 = getelementptr inbounds [100 x i32], ptr %9, i64 0, i64 0
  %19 = call noundef ptr @_Z25coco_string_create_appendPKwS0_(ptr noundef %17, ptr noundef %18)
  %20 = getelementptr inbounds %"class.VrmlTranslator::Errors", ptr %10, i32 0, i32 1
  store ptr %19, ptr %20, align 8
  %21 = getelementptr inbounds %"class.VrmlTranslator::Errors", ptr %10, i32 0, i32 0
  %22 = load i32, ptr %21, align 8
  %23 = add nsw i32 %22, 1
  store i32 %23, ptr %21, align 8
  ret void
}