; Function Attrs: mustprogress uwtable
define void @_ZN14VrmlTranslator6Errors5ErrorEiiPKw(ptr noundef nonnull align 8 captures(none) dereferenceable(16) %0, i32 noundef %1, i32 noundef %2, ptr noundef %3) local_unnamed_addr #0 align 2 {
  %5 = alloca [100 x i32], align 16
  %6 = call i32 (ptr, i64, ptr, ...) @swprintf(ptr noundef nonnull %5, i64 noundef 100, ptr noundef nonnull @.str.301, i32 noundef %1, i32 noundef %2, ptr noundef %3) #14
  %7 = getelementptr inbounds nuw i8, ptr %0, i64 8
  %8 = load ptr, ptr %7, align 8
  %9 = call noundef ptr @_Z25coco_string_create_appendPKwS0_(ptr noundef %8, ptr noundef nonnull %5)
  store ptr %9, ptr %7, align 8
  %10 = load i32, ptr %0, align 8
  %11 = add nsw i32 %10, 1
  store i32 %11, ptr %0, align 8
  ret void
}